; Function Attrs: mustprogress uwtable
define void @_ZN5nblib23GmxNBForceCalculatorCpu7CpuImpl7computeEN3gmx8ArrayRefIKNS2_11BasicVectorIfEEEERKNS_3BoxENS3_IS5_EENS3_IfEE(ptr noundef nonnull align 8 dereferenceable(2584) %0, ptr %1, ptr %2, ptr noundef nonnull align 4 dereferenceable(36) %3, ptr %4, ptr %5, ptr nocapture noundef readonly byval(%"class.gmx::ArrayRef.0") align 8 %6) local_unnamed_addr #0 align 2 {
  %8 = alloca %"class.gmx::ArrayRef.0", align 8
  %9 = alloca %"class.gmx::ArrayRef.0", align 8
  %10 = ptrtoint ptr %2 to i64
  %11 = ptrtoint ptr %1 to i64
  %12 = sub i64 %10, %11
  %13 = getelementptr inbounds i8, ptr %1, i64 %12
  %14 = ptrtoint ptr %5 to i64
  %15 = ptrtoint ptr %4 to i64
  %16 = sub i64 %14, %15
  %17 = getelementptr inbounds i8, ptr %4, i64 %16
  %18 = load ptr, ptr %6, align 8
  store ptr %18, ptr %8, align 8
  %19 = getelementptr inbounds i8, ptr %8, i64 8
  %20 = getelementptr inbounds i8, ptr %6, i64 8
  %21 = load ptr, ptr %20, align 8
  %22 = ptrtoint ptr %21 to i64
  %23 = ptrtoint ptr %18 to i64
  %24 = sub i64 %22, %23
  %25 = getelementptr inbounds i8, ptr %18, i64 %24
  store ptr %25, ptr %19, align 8
  call void @llvm.memset.p0.i64(ptr noundef nonnull align 8 dereferenceable(16) %9, i8 0, i64 16, i1 false)
  tail call void @_ZN5nblib23GmxNBForceCalculatorCpu7CpuImpl7computeEN3gmx8ArrayRefIKNS2_11BasicVectorIfEEEERKNS_3BoxENS3_IS5_EENS3_IfEESC_(ptr noundef nonnull align 8 dereferenceable(2584) %0, ptr %1, ptr %13, ptr noundef nonnull align 4 dereferenceable(36) %3, ptr %4, ptr %17, ptr noundef nonnull byval(%"class.gmx::ArrayRef.0") align 8 %8, ptr noundef nonnull byval(%"class.gmx::ArrayRef.0") align 8 %9)
  ret void
}